target datalayout = "e-m:e-p270:32:32-p271:32:32-p272:64:64-i64:64-i128:128-f80:128-n8:16:32:64-S128"
target triple = "x86_64-pc-linux-gnu"

%"class.duckdb_re2::Regexp::ParseState" = type { i32, %"class.duckdb_re2::StringPiece", ptr, ptr, i32, i32 }
%"class.duckdb_re2::StringPiece" = type { ptr, i64 }
%"class.duckdb_re2::Regexp" = type { i8, i8, i16, i16, i16, %union.anon, ptr, %union.anon.0 }
%union.anon = type { ptr }
%union.anon.0 = type { %struct.anon.1 }
%struct.anon.1 = type { i32, ptr }
%struct.anon.3 = type { ptr, ptr }

; Function Attrs: inlinehint mustprogress nounwind uwtable
define linkonce_odr hidden noundef i32 @_ZN10duckdb_re2coENS_6Regexp10ParseFlagsE(i32 noundef %0) #3 comdat {
  %2 = alloca i32, align 4
  store i32 %0, ptr %2, align 4, !tbaa !10
  %3 = load i32, ptr %2, align 4, !tbaa !10
  %4 = xor i32 %3, -1
  %5 = and i32 %4, 16383
  ret i32 %5
}

; Function Attrs: mustprogress uwtable
define hidden noundef zeroext i1 @_ZN10duckdb_re26Regexp10ParseState12PushSimpleOpENS_8RegexpOpE(ptr noundef nonnull align 8 dereferenceable(48) %0, i32 noundef %1) #1 align 2 personality ptr @__gxx_personality_v0 {
  %3 = alloca ptr, align 8
  %4 = alloca i32, align 4
  %5 = alloca ptr, align 8
  %6 = alloca ptr, align 8
  %7 = alloca i32, align 4
  store ptr %0, ptr %3, align 8, !tbaa !7
  store i32 %1, ptr %4, align 4, !tbaa !61
  %8 = load ptr, ptr %3, align 8
  call void @llvm.lifetime.start.p0(i64 8, ptr %5) #19
  %9 = call noalias noundef nonnull ptr @_Znwm(i64 noundef 40) #23
  %10 = load i32, ptr %4, align 4, !tbaa !61
  %11 = getelementptr inbounds nuw %"class.duckdb_re2::Regexp::ParseState", ptr %8, i32 0, i32 0
  %12 = load i32, ptr %11, align 8, !tbaa !16
  invoke void @_ZN10duckdb_re26RegexpC1ENS_8RegexpOpENS0_10ParseFlagsE(ptr noundef nonnull align 8 dereferenceable(40) %9, i32 noundef %10, i32 noundef %12)
          to label %13 unwind label %16

13:                                               ; preds = %2
  store ptr %9, ptr %5, align 8, !tbaa !29
  %14 = load ptr, ptr %5, align 8, !tbaa !29
  %15 = call noundef zeroext i1 @_ZN10duckdb_re26Regexp10ParseState10PushRegexpEPS0_(ptr noundef nonnull align 8 dereferenceable(48) %8, ptr noundef %14)
  call void @llvm.lifetime.end.p0(i64 8, ptr %5) #19
  ret i1 %15

16:                                               ; preds = %2
  %17 = landingpad { ptr, i32 }
          cleanup
  %18 = extractvalue { ptr, i32 } %17, 0
  store ptr %18, ptr %6, align 8
  %19 = extractvalue { ptr, i32 } %17, 1
  store i32 %19, ptr %7, align 4
  call void @_ZdlPv(ptr noundef %9) #21
  call void @llvm.lifetime.end.p0(i64 8, ptr %5) #19
  br label %20

20:                                               ; preds = %16
  %21 = load ptr, ptr %6, align 8
  %22 = load i32, ptr %7, align 4
  %23 = insertvalue { ptr, i32 } poison, ptr %21, 0
  %24 = insertvalue { ptr, i32 } %23, i32 %22, 1
  resume { ptr, i32 } %24
}

; Function Attrs: inlinehint mustprogress nounwind uwtable
define linkonce_odr hidden noundef i32 @_ZN10duckdb_re2anENS_6Regexp10ParseFlagsES1_(i32 noundef %0, i32 noundef %1) #3 comdat {
  %3 = alloca i32, align 4
  %4 = alloca i32, align 4
  store i32 %0, ptr %3, align 4, !tbaa !10
  store i32 %1, ptr %4, align 4, !tbaa !10
  %5 = load i32, ptr %3, align 4, !tbaa !10
  %6 = load i32, ptr %4, align 4, !tbaa !10
  %7 = and i32 %5, %6
  ret i32 %7
}

; Function Attrs: mustprogress uwtable
define hidden noundef zeroext i1 @_ZN10duckdb_re26Regexp10ParseState7PushDotEv(ptr noundef nonnull align 8 dereferenceable(48) %0) #1 align 2 personality ptr @__gxx_personality_v0 {
  %2 = alloca i1, align 1
  %3 = alloca ptr, align 8
  %4 = alloca ptr, align 8
  %5 = alloca ptr, align 8
  %6 = alloca i32, align 4
  store ptr %0, ptr %3, align 8, !tbaa !7
  %7 = load ptr, ptr %3, align 8
  %8 = getelementptr inbounds nuw %"class.duckdb_re2::Regexp::ParseState", ptr %7, i32 0, i32 0
  %9 = load i32, ptr %8, align 8, !tbaa !16
  %10 = call noundef i32 @_ZN10duckdb_re2anENS_6Regexp10ParseFlagsES1_(i32 noundef %9, i32 noundef 8)
  %11 = icmp ne i32 %10, 0
  br i1 %11, label %12, label %19

12:                                               ; preds = %1
  %13 = getelementptr inbounds nuw %"class.duckdb_re2::Regexp::ParseState", ptr %7, i32 0, i32 0
  %14 = load i32, ptr %13, align 8, !tbaa !16
  %15 = call noundef i32 @_ZN10duckdb_re2anENS_6Regexp10ParseFlagsES1_(i32 noundef %14, i32 noundef 2048)
  %16 = icmp ne i32 %15, 0
  br i1 %16, label %19, label %17

17:                                               ; preds = %12
  %18 = call noundef zeroext i1 @_ZN10duckdb_re26Regexp10ParseState12PushSimpleOpENS_8RegexpOpE(ptr noundef nonnull align 8 dereferenceable(48) %7, i32 noundef 12)
  store i1 %18, ptr %2, align 1
  br label %56

19:                                               ; preds = %12, %1
  call void @llvm.lifetime.start.p0(i64 8, ptr %4) #19
  %20 = call noalias noundef nonnull ptr @_Znwm(i64 noundef 40) #23
  %21 = getelementptr inbounds nuw %"class.duckdb_re2::Regexp::ParseState", ptr %7, i32 0, i32 0
  %22 = load i32, ptr %21, align 8, !tbaa !16
  %23 = invoke noundef i32 @_ZN10duckdb_re2coENS_6Regexp10ParseFlagsE(i32 noundef 1)
          to label %24 unwind label %47

24:                                               ; preds = %19
  %25 = invoke noundef i32 @_ZN10duckdb_re2anENS_6Regexp10ParseFlagsES1_(i32 noundef %22, i32 noundef %23)
          to label %26 unwind label %47

26:                                               ; preds = %24
  invoke void @_ZN10duckdb_re26RegexpC1ENS_8RegexpOpENS0_10ParseFlagsE(ptr noundef nonnull align 8 dereferenceable(40) %20, i32 noundef 20, i32 noundef %25)
          to label %27 unwind label %47

27:                                               ; preds = %26
  store ptr %20, ptr %4, align 8, !tbaa !29
  %28 = call noalias noundef nonnull ptr @_Znwm(i64 noundef 64) #23
  invoke void @_ZN10duckdb_re216CharClassBuilderC1Ev(ptr noundef nonnull align 8 dereferenceable(64) %28)
          to label %29 unwind label %51

29:                                               ; preds = %27
  %30 = load ptr, ptr %4, align 8, !tbaa !29
  %31 = getelementptr inbounds nuw %"class.duckdb_re2::Regexp", ptr %30, i32 0, i32 7
  %32 = getelementptr inbounds nuw %struct.anon.3, ptr %31, i32 0, i32 1
  store ptr %28, ptr %32, align 8, !tbaa !33
  %33 = load ptr, ptr %4, align 8, !tbaa !29
  %34 = getelementptr inbounds nuw %"class.duckdb_re2::Regexp", ptr %33, i32 0, i32 7
  %35 = getelementptr inbounds nuw %struct.anon.3, ptr %34, i32 0, i32 1
  %36 = load ptr, ptr %35, align 8, !tbaa !33
  %37 = call noundef zeroext i1 @_ZN10duckdb_re216CharClassBuilder8AddRangeEii(ptr noundef nonnull align 8 dereferenceable(64) %36, i32 noundef 0, i32 noundef 9)
  %38 = load ptr, ptr %4, align 8, !tbaa !29
  %39 = getelementptr inbounds nuw %"class.duckdb_re2::Regexp", ptr %38, i32 0, i32 7
  %40 = getelementptr inbounds nuw %struct.anon.3, ptr %39, i32 0, i32 1
  %41 = load ptr, ptr %40, align 8, !tbaa !33
  %42 = getelementptr inbounds nuw %"class.duckdb_re2::Regexp::ParseState", ptr %7, i32 0, i32 5
  %43 = load i32, ptr %42, align 4, !tbaa !28
  %44 = call noundef zeroext i1 @_ZN10duckdb_re216CharClassBuilder8AddRangeEii(ptr noundef nonnull align 8 dereferenceable(64) %41, i32 noundef 11, i32 noundef %43)
  %45 = load ptr, ptr %4, align 8, !tbaa !29
  %46 = call noundef zeroext i1 @_ZN10duckdb_re26Regexp10ParseState10PushRegexpEPS0_(ptr noundef nonnull align 8 dereferenceable(48) %7, ptr noundef %45)
  store i1 %46, ptr %2, align 1
  call void @llvm.lifetime.end.p0(i64 8, ptr %4) #19
  br label %56

47:                                               ; preds = %26, %24, %19
  %48 = landingpad { ptr, i32 }
          cleanup
  %49 = extractvalue { ptr, i32 } %48, 0
  store ptr %49, ptr %5, align 8
  %50 = extractvalue { ptr, i32 } %48, 1
  store i32 %50, ptr %6, align 4
  call void @_ZdlPv(ptr noundef %20) #21
  br label %55

51:                                               ; preds = %27
  %52 = landingpad { ptr, i32 }
          cleanup
  %53 = extractvalue { ptr, i32 } %52, 0
  store ptr %53, ptr %5, align 8
  %54 = extractvalue { ptr, i32 } %52, 1
  store i32 %54, ptr %6, align 4
  call void @_ZdlPv(ptr noundef %28) #21
  br label %55

55:                                               ; preds = %51, %47
  call void @llvm.lifetime.end.p0(i64 8, ptr %4) #19
  br label %58

56:                                               ; preds = %29, %17
  %57 = load i1, ptr %2, align 1
  ret i1 %57

58:                                               ; preds = %55
  %59 = load ptr, ptr %5, align 8
  %60 = load i32, ptr %6, align 4
  %61 = insertvalue { ptr, i32 } poison, ptr %59, 0
  %62 = insertvalue { ptr, i32 } %61, i32 %60, 1
  resume { ptr, i32 } %62
}