; Function Attrs: mustprogress uwtable
define hidden noundef zeroext i1 @_ZN10duckdb_re26Regexp10ParseState7PushDotEv(ptr noundef nonnull align 8 captures(none) dereferenceable(48) %0) local_unnamed_addr #9 align 2 personality ptr @__gxx_personality_v0 {
  %2 = load i32, ptr %0, align 8, !tbaa !7
  %3 = and i32 %2, 2056
  %or.cond = icmp eq i32 %3, 8
  %4 = tail call noalias noundef nonnull dereferenceable(40) ptr @_Znwm(i64 noundef 40) #33
  br i1 %or.cond, label %5, label %8

5:                                                ; preds = %1
  invoke void @_ZN10duckdb_re26RegexpC1ENS_8RegexpOpENS0_10ParseFlagsE(ptr noundef nonnull align 8 dereferenceable(40) %4, i32 noundef 12, i32 noundef %2)
          to label %_ZN10duckdb_re26Regexp10ParseState12PushSimpleOpENS_8RegexpOpE.exit unwind label %6

common.resume:                                    ; preds = %19, %21, %6
  %.sink = phi ptr [ %4, %19 ], [ %11, %21 ], [ %4, %6 ]
  %common.resume.op = phi { ptr, i32 } [ %20, %19 ], [ %22, %21 ], [ %7, %6 ]
  tail call void @_ZdlPv(ptr noundef nonnull %.sink) #30
  resume { ptr, i32 } %common.resume.op

6:                                                ; preds = %5
  %7 = landingpad { ptr, i32 }
          cleanup
  br label %common.resume

8:                                                ; preds = %1
  %9 = and i32 %2, 16382
  invoke void @_ZN10duckdb_re26RegexpC1ENS_8RegexpOpENS0_10ParseFlagsE(ptr noundef nonnull align 8 dereferenceable(40) %4, i32 noundef 20, i32 noundef %9)
          to label %10 unwind label %19

10:                                               ; preds = %8
  %11 = tail call noalias noundef nonnull dereferenceable(64) ptr @_Znwm(i64 noundef 64) #33
  invoke void @_ZN10duckdb_re216CharClassBuilderC1Ev(ptr noundef nonnull align 8 dereferenceable(64) %11)
          to label %12 unwind label %21

12:                                               ; preds = %10
  %13 = getelementptr inbounds nuw i8, ptr %4, i64 32
  store ptr %11, ptr %13, align 8, !tbaa !27
  %14 = tail call noundef zeroext i1 @_ZN10duckdb_re216CharClassBuilder8AddRangeEii(ptr noundef nonnull align 8 dereferenceable(64) %11, i32 noundef 0, i32 noundef 9)
  %15 = load ptr, ptr %13, align 8, !tbaa !27
  %16 = getelementptr inbounds nuw i8, ptr %0, i64 44
  %17 = load i32, ptr %16, align 4, !tbaa !22
  %18 = tail call noundef zeroext i1 @_ZN10duckdb_re216CharClassBuilder8AddRangeEii(ptr noundef nonnull align 8 dereferenceable(64) %15, i32 noundef 11, i32 noundef %17)
  br label %_ZN10duckdb_re26Regexp10ParseState12PushSimpleOpENS_8RegexpOpE.exit

19:                                               ; preds = %8
  %20 = landingpad { ptr, i32 }
          cleanup
  br label %common.resume

21:                                               ; preds = %10
  %22 = landingpad { ptr, i32 }
          cleanup
  br label %common.resume

_ZN10duckdb_re26Regexp10ParseState12PushSimpleOpENS_8RegexpOpE.exit: ; preds = %5, %12
  %23 = tail call noundef zeroext i1 @_ZN10duckdb_re26Regexp10ParseState10PushRegexpEPS0_(ptr noundef nonnull align 8 dereferenceable(48) %0, ptr noundef nonnull %4)
  ret i1 true
}